target datalayout = "e-m:e-p270:32:32-p271:32:32-p272:64:64-i64:64-i128:128-f80:128-n8:16:32:64-S128"
target triple = "x86_64-pc-linux-gnu"

%struct.ObjectAddresses = type { ptr, ptr, i32, i32 }

; Function Attrs: nounwind uwtable
define dso_local void @sort_object_addresses(ptr noundef %0) #0 {
  %2 = alloca ptr, align 8
  store ptr %0, ptr %2, align 8
  %3 = load ptr, ptr %2, align 8
  %4 = getelementptr inbounds nuw %struct.ObjectAddresses, ptr %3, i32 0, i32 2
  %5 = load i32, ptr %4, align 8
  %6 = icmp sgt i32 %5, 1
  br i1 %6, label %7, label %15

7:                                                ; preds = %1
  %8 = load ptr, ptr %2, align 8
  %9 = getelementptr inbounds nuw %struct.ObjectAddresses, ptr %8, i32 0, i32 0
  %10 = load ptr, ptr %9, align 8
  %11 = load ptr, ptr %2, align 8
  %12 = getelementptr inbounds nuw %struct.ObjectAddresses, ptr %11, i32 0, i32 2
  %13 = load i32, ptr %12, align 8
  %14 = sext i32 %13 to i64
  call void @pg_qsort(ptr noundef %10, i64 noundef %14, i64 noundef 12, ptr noundef @object_address_comparator)
  br label %15

15:                                               ; preds = %7, %1
  ret void
}