; Function Attrs: nounwind uwtable
define dso_local void @sort_object_addresses(ptr noundef readonly captures(none) %0) local_unnamed_addr #0 {
  %2 = getelementptr inbounds nuw i8, ptr %0, i64 16
  %3 = load i32, ptr %2, align 8
  %4 = icmp sgt i32 %3, 1
  br i1 %4, label %5, label %8

5:                                                ; preds = %1
  %6 = load ptr, ptr %0, align 8
  %7 = zext nneg i32 %3 to i64
  tail call void @pg_qsort(ptr noundef %6, i64 noundef %7, i64 noundef 12, ptr noundef nonnull @object_address_comparator) #9
  br label %8

8:                                                ; preds = %5, %1
  ret void
}